target datalayout = "e-m:e-p270:32:32-p271:32:32-p272:64:64-i64:64-i128:128-f80:128-n8:16:32:64-S128"
target triple = "x86_64-pc-linux-gnu"

%struct.RelationData = type { %struct.RelFileLocator, ptr, i32, i32, i8, i8, i8, i8, i8, i32, i32, i32, i32, ptr, ptr, i32, %struct.LockInfoData, ptr, ptr, ptr, ptr, ptr, i8, ptr, ptr, ptr, ptr, ptr, ptr, i32, ptr, i8, ptr, ptr, i32, i8, i32, ptr, i8, ptr, ptr, ptr, ptr, ptr, ptr, ptr, i32, ptr, ptr, ptr, ptr, ptr, ptr, ptr, ptr, ptr, ptr, ptr, ptr, ptr, ptr, ptr, ptr, ptr, ptr, ptr, i32, i8, ptr }
%struct.RelFileLocator = type { i32, i32, i32 }
%struct.LockInfoData = type { %struct.LockRelId }
%struct.LockRelId = type { i32, i32 }
%struct.dlist_node = type { ptr, ptr }
%struct.PgStat_TableStatus = type { i32, i8, ptr, %struct.PgStat_TableCounts, ptr }
%struct.PgStat_TableCounts = type { i64, i64, i64, i64, i64, i64, i64, i64, i8, i64, i64, i64, i64, i64 }
%struct.PgStat_TableXactStatus = type { i64, i64, i64, i8, i64, i64, i64, i32, ptr, ptr, ptr }
%struct.PgStat_SubXactStatus = type { i32, ptr, %struct.dclist_head, ptr }
%struct.dclist_head = type { %struct.dlist_head, i32 }
%struct.dlist_head = type { %struct.dlist_node }

@TopTransactionContext = external global ptr, align 8

; Function Attrs: nounwind uwtable
define internal void @add_tabstat_xact_level(ptr noundef %0, i32 noundef %1) #0 {
  %3 = alloca ptr, align 8
  %4 = alloca i32, align 4
  %5 = alloca ptr, align 8
  %6 = alloca ptr, align 8
  store ptr %0, ptr %3, align 8
  store i32 %1, ptr %4, align 4
  call void @llvm.lifetime.start.p0(i64 8, ptr %5) #6
  call void @llvm.lifetime.start.p0(i64 8, ptr %6) #6
  %7 = load i32, ptr %4, align 4
  %8 = call ptr @pgstat_get_xact_stack_level(i32 noundef %7)
  store ptr %8, ptr %5, align 8
  %9 = load ptr, ptr @TopTransactionContext, align 8
  %10 = call ptr @MemoryContextAllocZero(ptr noundef %9, i64 noundef 88)
  store ptr %10, ptr %6, align 8
  %11 = load i32, ptr %4, align 4
  %12 = load ptr, ptr %6, align 8
  %13 = getelementptr inbounds nuw %struct.PgStat_TableXactStatus, ptr %12, i32 0, i32 7
  store i32 %11, ptr %13, align 8
  %14 = load ptr, ptr %3, align 8
  %15 = getelementptr inbounds nuw %struct.PgStat_TableStatus, ptr %14, i32 0, i32 2
  %16 = load ptr, ptr %15, align 8
  %17 = load ptr, ptr %6, align 8
  %18 = getelementptr inbounds nuw %struct.PgStat_TableXactStatus, ptr %17, i32 0, i32 8
  store ptr %16, ptr %18, align 8
  %19 = load ptr, ptr %3, align 8
  %20 = load ptr, ptr %6, align 8
  %21 = getelementptr inbounds nuw %struct.PgStat_TableXactStatus, ptr %20, i32 0, i32 9
  store ptr %19, ptr %21, align 8
  %22 = load ptr, ptr %5, align 8
  %23 = getelementptr inbounds nuw %struct.PgStat_SubXactStatus, ptr %22, i32 0, i32 3
  %24 = load ptr, ptr %23, align 8
  %25 = load ptr, ptr %6, align 8
  %26 = getelementptr inbounds nuw %struct.PgStat_TableXactStatus, ptr %25, i32 0, i32 10
  store ptr %24, ptr %26, align 8
  %27 = load ptr, ptr %6, align 8
  %28 = load ptr, ptr %5, align 8
  %29 = getelementptr inbounds nuw %struct.PgStat_SubXactStatus, ptr %28, i32 0, i32 3
  store ptr %27, ptr %29, align 8
  %30 = load ptr, ptr %6, align 8
  %31 = load ptr, ptr %3, align 8
  %32 = getelementptr inbounds nuw %struct.PgStat_TableStatus, ptr %31, i32 0, i32 2
  store ptr %30, ptr %32, align 8
  call void @llvm.lifetime.end.p0(i64 8, ptr %6) #6
  call void @llvm.lifetime.end.p0(i64 8, ptr %5) #6
  ret void
}

; Function Attrs: nounwind uwtable
define internal void @ensure_tabstat_xact_level(ptr noundef %0) #0 {
  %2 = alloca ptr, align 8
  %3 = alloca i32, align 4
  store ptr %0, ptr %2, align 8
  call void @llvm.lifetime.start.p0(i64 4, ptr %3) #6
  %4 = call i32 @GetCurrentTransactionNestLevel()
  store i32 %4, ptr %3, align 4
  %5 = load ptr, ptr %2, align 8
  %6 = getelementptr inbounds nuw %struct.PgStat_TableStatus, ptr %5, i32 0, i32 2
  %7 = load ptr, ptr %6, align 8
  %8 = icmp eq ptr %7, null
  br i1 %8, label %17, label %9

9:                                                ; preds = %1
  %10 = load ptr, ptr %2, align 8
  %11 = getelementptr inbounds nuw %struct.PgStat_TableStatus, ptr %10, i32 0, i32 2
  %12 = load ptr, ptr %11, align 8
  %13 = getelementptr inbounds nuw %struct.PgStat_TableXactStatus, ptr %12, i32 0, i32 7
  %14 = load i32, ptr %13, align 8
  %15 = load i32, ptr %3, align 4
  %16 = icmp ne i32 %14, %15
  br i1 %16, label %17, label %20

17:                                               ; preds = %9, %1
  %18 = load ptr, ptr %2, align 8
  %19 = load i32, ptr %3, align 4
  call void @add_tabstat_xact_level(ptr noundef %18, i32 noundef %19)
  br label %20

20:                                               ; preds = %17, %9
  call void @llvm.lifetime.end.p0(i64 4, ptr %3) #6
  ret void
}

; Function Attrs: nounwind uwtable
define dso_local void @pgstat_count_heap_update(ptr noundef %0, i1 noundef zeroext %1, i1 noundef zeroext %2) #0 {
  %4 = alloca ptr, align 8
  %5 = alloca i8, align 1
  %6 = alloca i8, align 1
  %7 = alloca ptr, align 8
  store ptr %0, ptr %4, align 8
  %8 = zext i1 %1 to i8
  store i8 %8, ptr %5, align 1
  %9 = zext i1 %2 to i8
  store i8 %9, ptr %6, align 1
  %10 = load ptr, ptr %4, align 8
  %11 = getelementptr inbounds nuw %struct.RelationData, ptr %10, i32 0, i32 68
  %12 = load ptr, ptr %11, align 8
  %13 = icmp ne ptr %12, null
  %14 = zext i1 %13 to i32
  %15 = icmp ne i32 %14, 0
  %16 = zext i1 %15 to i32
  %17 = sext i32 %16 to i64
  %18 = call i64 @llvm.expect.i64(i64 %17, i64 1)
  %19 = icmp ne i64 %18, 0
  br i1 %19, label %20, label %21

20:                                               ; preds = %3
  br i1 true, label %29, label %59

21:                                               ; preds = %3
  %22 = load ptr, ptr %4, align 8
  %23 = getelementptr inbounds nuw %struct.RelationData, ptr %22, i32 0, i32 67
  %24 = load i8, ptr %23, align 4, !range !4, !noundef !5
  %25 = trunc i8 %24 to i1
  br i1 %25, label %26, label %28

26:                                               ; preds = %21
  %27 = load ptr, ptr %4, align 8
  call void @pgstat_assoc_relation(ptr noundef %27)
  br i1 true, label %29, label %59

28:                                               ; preds = %21
  br i1 false, label %29, label %59

29:                                               ; preds = %28, %26, %20
  call void @llvm.lifetime.start.p0(i64 8, ptr %7) #6
  %30 = load ptr, ptr %4, align 8
  %31 = getelementptr inbounds nuw %struct.RelationData, ptr %30, i32 0, i32 68
  %32 = load ptr, ptr %31, align 8
  store ptr %32, ptr %7, align 8
  %33 = load ptr, ptr %7, align 8
  call void @ensure_tabstat_xact_level(ptr noundef %33)
  %34 = load ptr, ptr %7, align 8
  %35 = getelementptr inbounds nuw %struct.PgStat_TableStatus, ptr %34, i32 0, i32 2
  %36 = load ptr, ptr %35, align 8
  %37 = getelementptr inbounds nuw %struct.PgStat_TableXactStatus, ptr %36, i32 0, i32 1
  %38 = load i64, ptr %37, align 8
  %39 = add i64 %38, 1
  store i64 %39, ptr %37, align 8
  %40 = load i8, ptr %5, align 1, !range !4, !noundef !5
  %41 = trunc i8 %40 to i1
  br i1 %41, label %42, label %48

42:                                               ; preds = %29
  %43 = load ptr, ptr %7, align 8
  %44 = getelementptr inbounds nuw %struct.PgStat_TableStatus, ptr %43, i32 0, i32 3
  %45 = getelementptr inbounds nuw %struct.PgStat_TableCounts, ptr %44, i32 0, i32 6
  %46 = load i64, ptr %45, align 8
  %47 = add i64 %46, 1
  store i64 %47, ptr %45, align 8
  br label %58

48:                                               ; preds = %29
  %49 = load i8, ptr %6, align 1, !range !4, !noundef !5
  %50 = trunc i8 %49 to i1
  br i1 %50, label %51, label %57

51:                                               ; preds = %48
  %52 = load ptr, ptr %7, align 8
  %53 = getelementptr inbounds nuw %struct.PgStat_TableStatus, ptr %52, i32 0, i32 3
  %54 = getelementptr inbounds nuw %struct.PgStat_TableCounts, ptr %53, i32 0, i32 7
  %55 = load i64, ptr %54, align 8
  %56 = add i64 %55, 1
  store i64 %56, ptr %54, align 8
  br label %57

57:                                               ; preds = %51, %48
  br label %58

58:                                               ; preds = %57, %42
  call void @llvm.lifetime.end.p0(i64 8, ptr %7) #6
  br label %59

59:                                               ; preds = %58, %28, %26, %20
  ret void
}