; Function Attrs: nounwind uwtable
define dso_local void @pgstat_count_heap_update(ptr noundef %0, i1 noundef zeroext %1, i1 noundef zeroext %2) local_unnamed_addr #0 {
  %4 = getelementptr inbounds nuw i8, ptr %0, i64 480
  %5 = load ptr, ptr %4, align 8
  %.not = icmp eq ptr %5, null
  br i1 %.not, label %6, label %11, !prof !6

6:                                                ; preds = %3
  %7 = getelementptr inbounds nuw i8, ptr %0, i64 476
  %8 = load i8, ptr %7, align 4, !range !4, !noundef !5
  %9 = trunc nuw i8 %8 to i1
  br i1 %9, label %10, label %38

10:                                               ; preds = %6
  tail call void @pgstat_assoc_relation(ptr noundef nonnull %0)
  %.pre = load ptr, ptr %4, align 8
  br label %11

11:                                               ; preds = %3, %10
  %12 = phi ptr [ %5, %3 ], [ %.pre, %10 ]
  %13 = tail call i32 @GetCurrentTransactionNestLevel() #9
  %14 = getelementptr inbounds nuw i8, ptr %12, i64 8
  %15 = load ptr, ptr %14, align 8
  %16 = icmp eq ptr %15, null
  br i1 %16, label %20, label %17

17:                                               ; preds = %11
  %18 = getelementptr inbounds nuw i8, ptr %15, i64 56
  %19 = load i32, ptr %18, align 8
  %.not.i = icmp eq i32 %19, %13
  br i1 %.not.i, label %ensure_tabstat_xact_level.exit, label %20

20:                                               ; preds = %17, %11
  %21 = tail call ptr @pgstat_get_xact_stack_level(i32 noundef %13) #9
  %22 = load ptr, ptr @TopTransactionContext, align 8
  %23 = tail call ptr @MemoryContextAllocZero(ptr noundef %22, i64 noundef 88) #9
  %24 = getelementptr inbounds nuw i8, ptr %23, i64 56
  store i32 %13, ptr %24, align 8
  %25 = load ptr, ptr %14, align 8
  %26 = getelementptr inbounds nuw i8, ptr %23, i64 64
  store ptr %25, ptr %26, align 8
  %27 = getelementptr inbounds nuw i8, ptr %23, i64 72
  store ptr %12, ptr %27, align 8
  %28 = getelementptr inbounds nuw i8, ptr %21, i64 40
  %29 = load ptr, ptr %28, align 8
  %30 = getelementptr inbounds nuw i8, ptr %23, i64 80
  store ptr %29, ptr %30, align 8
  store ptr %23, ptr %28, align 8
  store ptr %23, ptr %14, align 8
  br label %ensure_tabstat_xact_level.exit

ensure_tabstat_xact_level.exit:                   ; preds = %17, %20
  %31 = phi ptr [ %15, %17 ], [ %23, %20 ]
  %32 = getelementptr inbounds nuw i8, ptr %31, i64 8
  %33 = load i64, ptr %32, align 8
  %34 = add i64 %33, 1
  store i64 %34, ptr %32, align 8
  %brmerge = or i1 %1, %2
  br i1 %brmerge, label %.sink.split, label %38

.sink.split:                                      ; preds = %ensure_tabstat_xact_level.exit
  %.mux = select i1 %1, i64 64, i64 72
  %35 = getelementptr inbounds nuw i8, ptr %12, i64 %.mux
  %36 = load i64, ptr %35, align 8
  %37 = add i64 %36, 1
  store i64 %37, ptr %35, align 8
  br label %38

38:                                               ; preds = %ensure_tabstat_xact_level.exit, %.sink.split, %6
  ret void
}